(dp0
S'a'
p1
(dp2
S'n_videos'
p3
I2
sS'image_shape'
p4
(I255
I255
I3
tp5
sS'videos'
p6
(lp7
(lp8
S'/home/mihir/katherina/AssociationNet/data/ILSVRC2015-VID-Curation/Data/VID/train/a/ILSVRC2015_train_00000000/000000.00.crop.x.jpg'
p9
aS'/home/mihir/katherina/AssociationNet/data/ILSVRC2015-VID-Curation/Data/VID/train/a/ILSVRC2015_train_00000000/000001.00.crop.x.jpg'
p10
aS'/home/mihir/katherina/AssociationNet/data/ILSVRC2015-VID-Curation/Data/VID/train/a/ILSVRC2015_train_00000000/000002.00.crop.x.jpg'
p11
aS'/home/mihir/katherina/AssociationNet/data/ILSVRC2015-VID-Curation/Data/VID/train/a/ILSVRC2015_train_00000000/000003.00.crop.x.jpg'
p12
aS'/home/mihir/katherina/AssociationNet/data/ILSVRC2015-VID-Curation/Data/VID/train/a/ILSVRC2015_train_00000000/000004.00.crop.x.jpg'
p13
aS'/home/mihir/katherina/AssociationNet/data/ILSVRC2015-VID-Curation/Data/VID/train/a/ILSVRC2015_train_00000000/000005.00.crop.x.jpg'
p14
aS'/home/mihir/katherina/AssociationNet/data/ILSVRC2015-VID-Curation/Data/VID/train/a/ILSVRC2015_train_00000000/000006.00.crop.x.jpg'
p15
aS'/home/mihir/katherina/AssociationNet/data/ILSVRC2015-VID-Curation/Data/VID/train/a/ILSVRC2015_train_00000000/000007.00.crop.x.jpg'
p16
aS'/home/mihir/katherina/AssociationNet/data/ILSVRC2015-VID-Curation/Data/VID/train/a/ILSVRC2015_train_00000000/000008.00.crop.x.jpg'
p17
aS'/home/mihir/katherina/AssociationNet/data/ILSVRC2015-VID-Curation/Data/VID/train/a/ILSVRC2015_train_00000000/000009.00.crop.x.jpg'
p18
aS'/home/mihir/katherina/AssociationNet/data/ILSVRC2015-VID-Curation/Data/VID/train/a/ILSVRC2015_train_00000000/000010.00.crop.x.jpg'
p19
aS'/home/mihir/katherina/AssociationNet/data/ILSVRC2015-VID-Curation/Data/VID/train/a/ILSVRC2015_train_00000000/000011.00.crop.x.jpg'
p20
aS'/home/mihir/katherina/AssociationNet/data/ILSVRC2015-VID-Curation/Data/VID/train/a/ILSVRC2015_train_00000000/000012.00.crop.x.jpg'
p21
aS'/home/mihir/katherina/AssociationNet/data/ILSVRC2015-VID-Curation/Data/VID/train/a/ILSVRC2015_train_00000000/000013.00.crop.x.jpg'
p22
aS'/home/mihir/katherina/AssociationNet/data/ILSVRC2015-VID-Curation/Data/VID/train/a/ILSVRC2015_train_00000000/000014.00.crop.x.jpg'
p23
aS'/home/mihir/katherina/AssociationNet/data/ILSVRC2015-VID-Curation/Data/VID/train/a/ILSVRC2015_train_00000000/000015.00.crop.x.jpg'
p24
aS'/home/mihir/katherina/AssociationNet/data/ILSVRC2015-VID-Curation/Data/VID/train/a/ILSVRC2015_train_00000000/000016.00.crop.x.jpg'
p25
aS'/home/mihir/katherina/AssociationNet/data/ILSVRC2015-VID-Curation/Data/VID/train/a/ILSVRC2015_train_00000000/000017.00.crop.x.jpg'
p26
aS'/home/mihir/katherina/AssociationNet/data/ILSVRC2015-VID-Curation/Data/VID/train/a/ILSVRC2015_train_00000000/000018.00.crop.x.jpg'
p27
aS'/home/mihir/katherina/AssociationNet/data/ILSVRC2015-VID-Curation/Data/VID/train/a/ILSVRC2015_train_00000000/000019.00.crop.x.jpg'
p28
aS'/home/mihir/katherina/AssociationNet/data/ILSVRC2015-VID-Curation/Data/VID/train/a/ILSVRC2015_train_00000000/000020.00.crop.x.jpg'
p29
aS'/home/mihir/katherina/AssociationNet/data/ILSVRC2015-VID-Curation/Data/VID/train/a/ILSVRC2015_train_00000000/000021.00.crop.x.jpg'
p30
aS'/home/mihir/katherina/AssociationNet/data/ILSVRC2015-VID-Curation/Data/VID/train/a/ILSVRC2015_train_00000000/000022.00.crop.x.jpg'
p31
aS'/home/mihir/katherina/AssociationNet/data/ILSVRC2015-VID-Curation/Data/VID/train/a/ILSVRC2015_train_00000000/000023.00.crop.x.jpg'
p32
aS'/home/mihir/katherina/AssociationNet/data/ILSVRC2015-VID-Curation/Data/VID/train/a/ILSVRC2015_train_00000000/000024.00.crop.x.jpg'
p33
aS'/home/mihir/katherina/AssociationNet/data/ILSVRC2015-VID-Curation/Data/VID/train/a/ILSVRC2015_train_00000000/000025.00.crop.x.jpg'
p34
aS'/home/mihir/katherina/AssociationNet/data/ILSVRC2015-VID-Curation/Data/VID/train/a/ILSVRC2015_train_00000000/000026.00.crop.x.jpg'
p35
aS'/home/mihir/katherina/AssociationNet/data/ILSVRC2015-VID-Curation/Data/VID/train/a/ILSVRC2015_train_00000000/000027.00.crop.x.jpg'
p36
aS'/home/mihir/katherina/AssociationNet/data/ILSVRC2015-VID-Curation/Data/VID/train/a/ILSVRC2015_train_00000000/000028.00.crop.x.jpg'
p37
aS'/home/mihir/katherina/AssociationNet/data/ILSVRC2015-VID-Curation/Data/VID/train/a/ILSVRC2015_train_00000000/000029.00.crop.x.jpg'
p38
aS'/home/mihir/katherina/AssociationNet/data/ILSVRC2015-VID-Curation/Data/VID/train/a/ILSVRC2015_train_00000000/000030.00.crop.x.jpg'
p39
aS'/home/mihir/katherina/AssociationNet/data/ILSVRC2015-VID-Curation/Data/VID/train/a/ILSVRC2015_train_00000000/000031.00.crop.x.jpg'
p40
aS'/home/mihir/katherina/AssociationNet/data/ILSVRC2015-VID-Curation/Data/VID/train/a/ILSVRC2015_train_00000000/000032.00.crop.x.jpg'
p41
aS'/home/mihir/katherina/AssociationNet/data/ILSVRC2015-VID-Curation/Data/VID/train/a/ILSVRC2015_train_00000000/000033.00.crop.x.jpg'
p42
aS'/home/mihir/katherina/AssociationNet/data/ILSVRC2015-VID-Curation/Data/VID/train/a/ILSVRC2015_train_00000000/000034.00.crop.x.jpg'
p43
aS'/home/mihir/katherina/AssociationNet/data/ILSVRC2015-VID-Curation/Data/VID/train/a/ILSVRC2015_train_00000000/000035.00.crop.x.jpg'
p44
aS'/home/mihir/katherina/AssociationNet/data/ILSVRC2015-VID-Curation/Data/VID/train/a/ILSVRC2015_train_00000000/000036.00.crop.x.jpg'
p45
aS'/home/mihir/katherina/AssociationNet/data/ILSVRC2015-VID-Curation/Data/VID/train/a/ILSVRC2015_train_00000000/000037.00.crop.x.jpg'
p46
aS'/home/mihir/katherina/AssociationNet/data/ILSVRC2015-VID-Curation/Data/VID/train/a/ILSVRC2015_train_00000000/000038.00.crop.x.jpg'
p47
aS'/home/mihir/katherina/AssociationNet/data/ILSVRC2015-VID-Curation/Data/VID/train/a/ILSVRC2015_train_00000000/000039.00.crop.x.jpg'
p48
aS'/home/mihir/katherina/AssociationNet/data/ILSVRC2015-VID-Curation/Data/VID/train/a/ILSVRC2015_train_00000000/000040.00.crop.x.jpg'
p49
aS'/home/mihir/katherina/AssociationNet/data/ILSVRC2015-VID-Curation/Data/VID/train/a/ILSVRC2015_train_00000000/000041.00.crop.x.jpg'
p50
aS'/home/mihir/katherina/AssociationNet/data/ILSVRC2015-VID-Curation/Data/VID/train/a/ILSVRC2015_train_00000000/000042.00.crop.x.jpg'
p51
aS'/home/mihir/katherina/AssociationNet/data/ILSVRC2015-VID-Curation/Data/VID/train/a/ILSVRC2015_train_00000000/000043.00.crop.x.jpg'
p52
aS'/home/mihir/katherina/AssociationNet/data/ILSVRC2015-VID-Curation/Data/VID/train/a/ILSVRC2015_train_00000000/000044.00.crop.x.jpg'
p53
aS'/home/mihir/katherina/AssociationNet/data/ILSVRC2015-VID-Curation/Data/VID/train/a/ILSVRC2015_train_00000000/000045.00.crop.x.jpg'
p54
aS'/home/mihir/katherina/AssociationNet/data/ILSVRC2015-VID-Curation/Data/VID/train/a/ILSVRC2015_train_00000000/000046.00.crop.x.jpg'
p55
aS'/home/mihir/katherina/AssociationNet/data/ILSVRC2015-VID-Curation/Data/VID/train/a/ILSVRC2015_train_00000000/000047.00.crop.x.jpg'
p56
aS'/home/mihir/katherina/AssociationNet/data/ILSVRC2015-VID-Curation/Data/VID/train/a/ILSVRC2015_train_00000000/000048.00.crop.x.jpg'
p57
aS'/home/mihir/katherina/AssociationNet/data/ILSVRC2015-VID-Curation/Data/VID/train/a/ILSVRC2015_train_00000000/000049.00.crop.x.jpg'
p58
aS'/home/mihir/katherina/AssociationNet/data/ILSVRC2015-VID-Curation/Data/VID/train/a/ILSVRC2015_train_00000000/000050.00.crop.x.jpg'
p59
aS'/home/mihir/katherina/AssociationNet/data/ILSVRC2015-VID-Curation/Data/VID/train/a/ILSVRC2015_train_00000000/000051.00.crop.x.jpg'
p60
aS'/home/mihir/katherina/AssociationNet/data/ILSVRC2015-VID-Curation/Data/VID/train/a/ILSVRC2015_train_00000000/000052.00.crop.x.jpg'
p61
aS'/home/mihir/katherina/AssociationNet/data/ILSVRC2015-VID-Curation/Data/VID/train/a/ILSVRC2015_train_00000000/000053.00.crop.x.jpg'
p62
aS'/home/mihir/katherina/AssociationNet/data/ILSVRC2015-VID-Curation/Data/VID/train/a/ILSVRC2015_train_00000000/000054.00.crop.x.jpg'
p63
aS'/home/mihir/katherina/AssociationNet/data/ILSVRC2015-VID-Curation/Data/VID/train/a/ILSVRC2015_train_00000000/000055.00.crop.x.jpg'
p64
aS'/home/mihir/katherina/AssociationNet/data/ILSVRC2015-VID-Curation/Data/VID/train/a/ILSVRC2015_train_00000000/000056.00.crop.x.jpg'
p65
aS'/home/mihir/katherina/AssociationNet/data/ILSVRC2015-VID-Curation/Data/VID/train/a/ILSVRC2015_train_00000000/000057.00.crop.x.jpg'
p66
aS'/home/mihir/katherina/AssociationNet/data/ILSVRC2015-VID-Curation/Data/VID/train/a/ILSVRC2015_train_00000000/000058.00.crop.x.jpg'
p67
aS'/home/mihir/katherina/AssociationNet/data/ILSVRC2015-VID-Curation/Data/VID/train/a/ILSVRC2015_train_00000000/000059.00.crop.x.jpg'
p68
aS'/home/mihir/katherina/AssociationNet/data/ILSVRC2015-VID-Curation/Data/VID/train/a/ILSVRC2015_train_00000000/000060.00.crop.x.jpg'
p69
aa(lp70
S'/home/mihir/katherina/AssociationNet/data/ILSVRC2015-VID-Curation/Data/VID/train/a/ILSVRC2015_train_00001000/000000.00.crop.x.jpg'
p71
aS'/home/mihir/katherina/AssociationNet/data/ILSVRC2015-VID-Curation/Data/VID/train/a/ILSVRC2015_train_00001000/000001.00.crop.x.jpg'
p72
aS'/home/mihir/katherina/AssociationNet/data/ILSVRC2015-VID-Curation/Data/VID/train/a/ILSVRC2015_train_00001000/000002.00.crop.x.jpg'
p73
aS'/home/mihir/katherina/AssociationNet/data/ILSVRC2015-VID-Curation/Data/VID/train/a/ILSVRC2015_train_00001000/000003.00.crop.x.jpg'
p74
aS'/home/mihir/katherina/AssociationNet/data/ILSVRC2015-VID-Curation/Data/VID/train/a/ILSVRC2015_train_00001000/000004.00.crop.x.jpg'
p75
aS'/home/mihir/katherina/AssociationNet/data/ILSVRC2015-VID-Curation/Data/VID/train/a/ILSVRC2015_train_00001000/000005.00.crop.x.jpg'
p76
aS'/home/mihir/katherina/AssociationNet/data/ILSVRC2015-VID-Curation/Data/VID/train/a/ILSVRC2015_train_00001000/000006.00.crop.x.jpg'
p77
aS'/home/mihir/katherina/AssociationNet/data/ILSVRC2015-VID-Curation/Data/VID/train/a/ILSVRC2015_train_00001000/000007.00.crop.x.jpg'
p78
aS'/home/mihir/katherina/AssociationNet/data/ILSVRC2015-VID-Curation/Data/VID/train/a/ILSVRC2015_train_00001000/000008.00.crop.x.jpg'
p79
aS'/home/mihir/katherina/AssociationNet/data/ILSVRC2015-VID-Curation/Data/VID/train/a/ILSVRC2015_train_00001000/000009.00.crop.x.jpg'
p80
aS'/home/mihir/katherina/AssociationNet/data/ILSVRC2015-VID-Curation/Data/VID/train/a/ILSVRC2015_train_00001000/000010.00.crop.x.jpg'
p81
aS'/home/mihir/katherina/AssociationNet/data/ILSVRC2015-VID-Curation/Data/VID/train/a/ILSVRC2015_train_00001000/000011.00.crop.x.jpg'
p82
aS'/home/mihir/katherina/AssociationNet/data/ILSVRC2015-VID-Curation/Data/VID/train/a/ILSVRC2015_train_00001000/000012.00.crop.x.jpg'
p83
aS'/home/mihir/katherina/AssociationNet/data/ILSVRC2015-VID-Curation/Data/VID/train/a/ILSVRC2015_train_00001000/000013.00.crop.x.jpg'
p84
aS'/home/mihir/katherina/AssociationNet/data/ILSVRC2015-VID-Curation/Data/VID/train/a/ILSVRC2015_train_00001000/000014.00.crop.x.jpg'
p85
aS'/home/mihir/katherina/AssociationNet/data/ILSVRC2015-VID-Curation/Data/VID/train/a/ILSVRC2015_train_00001000/000015.00.crop.x.jpg'
p86
aS'/home/mihir/katherina/AssociationNet/data/ILSVRC2015-VID-Curation/Data/VID/train/a/ILSVRC2015_train_00001000/000016.00.crop.x.jpg'
p87
aS'/home/mihir/katherina/AssociationNet/data/ILSVRC2015-VID-Curation/Data/VID/train/a/ILSVRC2015_train_00001000/000017.00.crop.x.jpg'
p88
aS'/home/mihir/katherina/AssociationNet/data/ILSVRC2015-VID-Curation/Data/VID/train/a/ILSVRC2015_train_00001000/000018.00.crop.x.jpg'
p89
aS'/home/mihir/katherina/AssociationNet/data/ILSVRC2015-VID-Curation/Data/VID/train/a/ILSVRC2015_train_00001000/000019.00.crop.x.jpg'
p90
aS'/home/mihir/katherina/AssociationNet/data/ILSVRC2015-VID-Curation/Data/VID/train/a/ILSVRC2015_train_00001000/000020.00.crop.x.jpg'
p91
aS'/home/mihir/katherina/AssociationNet/data/ILSVRC2015-VID-Curation/Data/VID/train/a/ILSVRC2015_train_00001000/000021.00.crop.x.jpg'
p92
aS'/home/mihir/katherina/AssociationNet/data/ILSVRC2015-VID-Curation/Data/VID/train/a/ILSVRC2015_train_00001000/000022.00.crop.x.jpg'
p93
aS'/home/mihir/katherina/AssociationNet/data/ILSVRC2015-VID-Curation/Data/VID/train/a/ILSVRC2015_train_00001000/000023.00.crop.x.jpg'
p94
aS'/home/mihir/katherina/AssociationNet/data/ILSVRC2015-VID-Curation/Data/VID/train/a/ILSVRC2015_train_00001000/000024.00.crop.x.jpg'
p95
aS'/home/mihir/katherina/AssociationNet/data/ILSVRC2015-VID-Curation/Data/VID/train/a/ILSVRC2015_train_00001000/000025.00.crop.x.jpg'
p96
aS'/home/mihir/katherina/AssociationNet/data/ILSVRC2015-VID-Curation/Data/VID/train/a/ILSVRC2015_train_00001000/000026.00.crop.x.jpg'
p97
aS'/home/mihir/katherina/AssociationNet/data/ILSVRC2015-VID-Curation/Data/VID/train/a/ILSVRC2015_train_00001000/000027.00.crop.x.jpg'
p98
aS'/home/mihir/katherina/AssociationNet/data/ILSVRC2015-VID-Curation/Data/VID/train/a/ILSVRC2015_train_00001000/000028.00.crop.x.jpg'
p99
aS'/home/mihir/katherina/AssociationNet/data/ILSVRC2015-VID-Curation/Data/VID/train/a/ILSVRC2015_train_00001000/000029.00.crop.x.jpg'
p100
aS'/home/mihir/katherina/AssociationNet/data/ILSVRC2015-VID-Curation/Data/VID/train/a/ILSVRC2015_train_00001000/000030.00.crop.x.jpg'
p101
aS'/home/mihir/katherina/AssociationNet/data/ILSVRC2015-VID-Curation/Data/VID/train/a/ILSVRC2015_train_00001000/000031.00.crop.x.jpg'
p102
aS'/home/mihir/katherina/AssociationNet/data/ILSVRC2015-VID-Curation/Data/VID/train/a/ILSVRC2015_train_00001000/000032.00.crop.x.jpg'
p103
aS'/home/mihir/katherina/AssociationNet/data/ILSVRC2015-VID-Curation/Data/VID/train/a/ILSVRC2015_train_00001000/000033.00.crop.x.jpg'
p104
aS'/home/mihir/katherina/AssociationNet/data/ILSVRC2015-VID-Curation/Data/VID/train/a/ILSVRC2015_train_00001000/000034.00.crop.x.jpg'
p105
aS'/home/mihir/katherina/AssociationNet/data/ILSVRC2015-VID-Curation/Data/VID/train/a/ILSVRC2015_train_00001000/000035.00.crop.x.jpg'
p106
aS'/home/mihir/katherina/AssociationNet/data/ILSVRC2015-VID-Curation/Data/VID/train/a/ILSVRC2015_train_00001000/000036.00.crop.x.jpg'
p107
aS'/home/mihir/katherina/AssociationNet/data/ILSVRC2015-VID-Curation/Data/VID/train/a/ILSVRC2015_train_00001000/000037.00.crop.x.jpg'
p108
aS'/home/mihir/katherina/AssociationNet/data/ILSVRC2015-VID-Curation/Data/VID/train/a/ILSVRC2015_train_00001000/000038.00.crop.x.jpg'
p109
aS'/home/mihir/katherina/AssociationNet/data/ILSVRC2015-VID-Curation/Data/VID/train/a/ILSVRC2015_train_00001000/000039.00.crop.x.jpg'
p110
aS'/home/mihir/katherina/AssociationNet/data/ILSVRC2015-VID-Curation/Data/VID/train/a/ILSVRC2015_train_00001000/000040.00.crop.x.jpg'
p111
aS'/home/mihir/katherina/AssociationNet/data/ILSVRC2015-VID-Curation/Data/VID/train/a/ILSVRC2015_train_00001000/000041.00.crop.x.jpg'
p112
aS'/home/mihir/katherina/AssociationNet/data/ILSVRC2015-VID-Curation/Data/VID/train/a/ILSVRC2015_train_00001000/000042.00.crop.x.jpg'
p113
aS'/home/mihir/katherina/AssociationNet/data/ILSVRC2015-VID-Curation/Data/VID/train/a/ILSVRC2015_train_00001000/000043.00.crop.x.jpg'
p114
aS'/home/mihir/katherina/AssociationNet/data/ILSVRC2015-VID-Curation/Data/VID/train/a/ILSVRC2015_train_00001000/000044.00.crop.x.jpg'
p115
aS'/home/mihir/katherina/AssociationNet/data/ILSVRC2015-VID-Curation/Data/VID/train/a/ILSVRC2015_train_00001000/000045.00.crop.x.jpg'
p116
aS'/home/mihir/katherina/AssociationNet/data/ILSVRC2015-VID-Curation/Data/VID/train/a/ILSVRC2015_train_00001000/000046.00.crop.x.jpg'
p117
aS'/home/mihir/katherina/AssociationNet/data/ILSVRC2015-VID-Curation/Data/VID/train/a/ILSVRC2015_train_00001000/000047.00.crop.x.jpg'
p118
aassS'a_decenter'
p119
(dp120
g3
I2
sg4
g5
sg6
(lp121
(lp122
S'/home/mihir/katherina/AssociationNet/data/ILSVRC2015-VID-Curation/Data/VID/train/a_decenter/ILSVRC2015_train_00000000/000000.00.crop.x.jpg'
p123
aS'/home/mihir/katherina/AssociationNet/data/ILSVRC2015-VID-Curation/Data/VID/train/a_decenter/ILSVRC2015_train_00000000/000001.00.crop.x.jpg'
p124
aS'/home/mihir/katherina/AssociationNet/data/ILSVRC2015-VID-Curation/Data/VID/train/a_decenter/ILSVRC2015_train_00000000/000002.00.crop.x.jpg'
p125
aS'/home/mihir/katherina/AssociationNet/data/ILSVRC2015-VID-Curation/Data/VID/train/a_decenter/ILSVRC2015_train_00000000/000003.00.crop.x.jpg'
p126
aS'/home/mihir/katherina/AssociationNet/data/ILSVRC2015-VID-Curation/Data/VID/train/a_decenter/ILSVRC2015_train_00000000/000004.00.crop.x.jpg'
p127
aS'/home/mihir/katherina/AssociationNet/data/ILSVRC2015-VID-Curation/Data/VID/train/a_decenter/ILSVRC2015_train_00000000/000005.00.crop.x.jpg'
p128
aS'/home/mihir/katherina/AssociationNet/data/ILSVRC2015-VID-Curation/Data/VID/train/a_decenter/ILSVRC2015_train_00000000/000006.00.crop.x.jpg'
p129
aS'/home/mihir/katherina/AssociationNet/data/ILSVRC2015-VID-Curation/Data/VID/train/a_decenter/ILSVRC2015_train_00000000/000007.00.crop.x.jpg'
p130
aS'/home/mihir/katherina/AssociationNet/data/ILSVRC2015-VID-Curation/Data/VID/train/a_decenter/ILSVRC2015_train_00000000/000008.00.crop.x.jpg'
p131
aS'/home/mihir/katherina/AssociationNet/data/ILSVRC2015-VID-Curation/Data/VID/train/a_decenter/ILSVRC2015_train_00000000/000009.00.crop.x.jpg'
p132
aS'/home/mihir/katherina/AssociationNet/data/ILSVRC2015-VID-Curation/Data/VID/train/a_decenter/ILSVRC2015_train_00000000/000010.00.crop.x.jpg'
p133
aS'/home/mihir/katherina/AssociationNet/data/ILSVRC2015-VID-Curation/Data/VID/train/a_decenter/ILSVRC2015_train_00000000/000011.00.crop.x.jpg'
p134
aS'/home/mihir/katherina/AssociationNet/data/ILSVRC2015-VID-Curation/Data/VID/train/a_decenter/ILSVRC2015_train_00000000/000012.00.crop.x.jpg'
p135
aS'/home/mihir/katherina/AssociationNet/data/ILSVRC2015-VID-Curation/Data/VID/train/a_decenter/ILSVRC2015_train_00000000/000013.00.crop.x.jpg'
p136
aS'/home/mihir/katherina/AssociationNet/data/ILSVRC2015-VID-Curation/Data/VID/train/a_decenter/ILSVRC2015_train_00000000/000014.00.crop.x.jpg'
p137
aS'/home/mihir/katherina/AssociationNet/data/ILSVRC2015-VID-Curation/Data/VID/train/a_decenter/ILSVRC2015_train_00000000/000015.00.crop.x.jpg'
p138
aS'/home/mihir/katherina/AssociationNet/data/ILSVRC2015-VID-Curation/Data/VID/train/a_decenter/ILSVRC2015_train_00000000/000016.00.crop.x.jpg'
p139
aS'/home/mihir/katherina/AssociationNet/data/ILSVRC2015-VID-Curation/Data/VID/train/a_decenter/ILSVRC2015_train_00000000/000017.00.crop.x.jpg'
p140
aS'/home/mihir/katherina/AssociationNet/data/ILSVRC2015-VID-Curation/Data/VID/train/a_decenter/ILSVRC2015_train_00000000/000018.00.crop.x.jpg'
p141
aS'/home/mihir/katherina/AssociationNet/data/ILSVRC2015-VID-Curation/Data/VID/train/a_decenter/ILSVRC2015_train_00000000/000019.00.crop.x.jpg'
p142
aS'/home/mihir/katherina/AssociationNet/data/ILSVRC2015-VID-Curation/Data/VID/train/a_decenter/ILSVRC2015_train_00000000/000020.00.crop.x.jpg'
p143
aS'/home/mihir/katherina/AssociationNet/data/ILSVRC2015-VID-Curation/Data/VID/train/a_decenter/ILSVRC2015_train_00000000/000021.00.crop.x.jpg'
p144
aS'/home/mihir/katherina/AssociationNet/data/ILSVRC2015-VID-Curation/Data/VID/train/a_decenter/ILSVRC2015_train_00000000/000022.00.crop.x.jpg'
p145
aS'/home/mihir/katherina/AssociationNet/data/ILSVRC2015-VID-Curation/Data/VID/train/a_decenter/ILSVRC2015_train_00000000/000023.00.crop.x.jpg'
p146
aS'/home/mihir/katherina/AssociationNet/data/ILSVRC2015-VID-Curation/Data/VID/train/a_decenter/ILSVRC2015_train_00000000/000024.00.crop.x.jpg'
p147
aS'/home/mihir/katherina/AssociationNet/data/ILSVRC2015-VID-Curation/Data/VID/train/a_decenter/ILSVRC2015_train_00000000/000025.00.crop.x.jpg'
p148
aS'/home/mihir/katherina/AssociationNet/data/ILSVRC2015-VID-Curation/Data/VID/train/a_decenter/ILSVRC2015_train_00000000/000026.00.crop.x.jpg'
p149
aS'/home/mihir/katherina/AssociationNet/data/ILSVRC2015-VID-Curation/Data/VID/train/a_decenter/ILSVRC2015_train_00000000/000027.00.crop.x.jpg'
p150
aS'/home/mihir/katherina/AssociationNet/data/ILSVRC2015-VID-Curation/Data/VID/train/a_decenter/ILSVRC2015_train_00000000/000028.00.crop.x.jpg'
p151
aS'/home/mihir/katherina/AssociationNet/data/ILSVRC2015-VID-Curation/Data/VID/train/a_decenter/ILSVRC2015_train_00000000/000029.00.crop.x.jpg'
p152
aS'/home/mihir/katherina/AssociationNet/data/ILSVRC2015-VID-Curation/Data/VID/train/a_decenter/ILSVRC2015_train_00000000/000030.00.crop.x.jpg'
p153
aS'/home/mihir/katherina/AssociationNet/data/ILSVRC2015-VID-Curation/Data/VID/train/a_decenter/ILSVRC2015_train_00000000/000031.00.crop.x.jpg'
p154
aS'/home/mihir/katherina/AssociationNet/data/ILSVRC2015-VID-Curation/Data/VID/train/a_decenter/ILSVRC2015_train_00000000/000032.00.crop.x.jpg'
p155
aS'/home/mihir/katherina/AssociationNet/data/ILSVRC2015-VID-Curation/Data/VID/train/a_decenter/ILSVRC2015_train_00000000/000033.00.crop.x.jpg'
p156
aS'/home/mihir/katherina/AssociationNet/data/ILSVRC2015-VID-Curation/Data/VID/train/a_decenter/ILSVRC2015_train_00000000/000034.00.crop.x.jpg'
p157
aS'/home/mihir/katherina/AssociationNet/data/ILSVRC2015-VID-Curation/Data/VID/train/a_decenter/ILSVRC2015_train_00000000/000035.00.crop.x.jpg'
p158
aS'/home/mihir/katherina/AssociationNet/data/ILSVRC2015-VID-Curation/Data/VID/train/a_decenter/ILSVRC2015_train_00000000/000036.00.crop.x.jpg'
p159
aS'/home/mihir/katherina/AssociationNet/data/ILSVRC2015-VID-Curation/Data/VID/train/a_decenter/ILSVRC2015_train_00000000/000037.00.crop.x.jpg'
p160
aS'/home/mihir/katherina/AssociationNet/data/ILSVRC2015-VID-Curation/Data/VID/train/a_decenter/ILSVRC2015_train_00000000/000038.00.crop.x.jpg'
p161
aS'/home/mihir/katherina/AssociationNet/data/ILSVRC2015-VID-Curation/Data/VID/train/a_decenter/ILSVRC2015_train_00000000/000039.00.crop.x.jpg'
p162
aS'/home/mihir/katherina/AssociationNet/data/ILSVRC2015-VID-Curation/Data/VID/train/a_decenter/ILSVRC2015_train_00000000/000040.00.crop.x.jpg'
p163
aS'/home/mihir/katherina/AssociationNet/data/ILSVRC2015-VID-Curation/Data/VID/train/a_decenter/ILSVRC2015_train_00000000/000041.00.crop.x.jpg'
p164
aS'/home/mihir/katherina/AssociationNet/data/ILSVRC2015-VID-Curation/Data/VID/train/a_decenter/ILSVRC2015_train_00000000/000042.00.crop.x.jpg'
p165
aS'/home/mihir/katherina/AssociationNet/data/ILSVRC2015-VID-Curation/Data/VID/train/a_decenter/ILSVRC2015_train_00000000/000043.00.crop.x.jpg'
p166
aS'/home/mihir/katherina/AssociationNet/data/ILSVRC2015-VID-Curation/Data/VID/train/a_decenter/ILSVRC2015_train_00000000/000044.00.crop.x.jpg'
p167
aS'/home/mihir/katherina/AssociationNet/data/ILSVRC2015-VID-Curation/Data/VID/train/a_decenter/ILSVRC2015_train_00000000/000045.00.crop.x.jpg'
p168
aS'/home/mihir/katherina/AssociationNet/data/ILSVRC2015-VID-Curation/Data/VID/train/a_decenter/ILSVRC2015_train_00000000/000046.00.crop.x.jpg'
p169
aS'/home/mihir/katherina/AssociationNet/data/ILSVRC2015-VID-Curation/Data/VID/train/a_decenter/ILSVRC2015_train_00000000/000047.00.crop.x.jpg'
p170
aS'/home/mihir/katherina/AssociationNet/data/ILSVRC2015-VID-Curation/Data/VID/train/a_decenter/ILSVRC2015_train_00000000/000048.00.crop.x.jpg'
p171
aS'/home/mihir/katherina/AssociationNet/data/ILSVRC2015-VID-Curation/Data/VID/train/a_decenter/ILSVRC2015_train_00000000/000049.00.crop.x.jpg'
p172
aS'/home/mihir/katherina/AssociationNet/data/ILSVRC2015-VID-Curation/Data/VID/train/a_decenter/ILSVRC2015_train_00000000/000050.00.crop.x.jpg'
p173
aS'/home/mihir/katherina/AssociationNet/data/ILSVRC2015-VID-Curation/Data/VID/train/a_decenter/ILSVRC2015_train_00000000/000051.00.crop.x.jpg'
p174
aS'/home/mihir/katherina/AssociationNet/data/ILSVRC2015-VID-Curation/Data/VID/train/a_decenter/ILSVRC2015_train_00000000/000052.00.crop.x.jpg'
p175
aS'/home/mihir/katherina/AssociationNet/data/ILSVRC2015-VID-Curation/Data/VID/train/a_decenter/ILSVRC2015_train_00000000/000053.00.crop.x.jpg'
p176
aS'/home/mihir/katherina/AssociationNet/data/ILSVRC2015-VID-Curation/Data/VID/train/a_decenter/ILSVRC2015_train_00000000/000054.00.crop.x.jpg'
p177
aS'/home/mihir/katherina/AssociationNet/data/ILSVRC2015-VID-Curation/Data/VID/train/a_decenter/ILSVRC2015_train_00000000/000055.00.crop.x.jpg'
p178
aS'/home/mihir/katherina/AssociationNet/data/ILSVRC2015-VID-Curation/Data/VID/train/a_decenter/ILSVRC2015_train_00000000/000056.00.crop.x.jpg'
p179
aS'/home/mihir/katherina/AssociationNet/data/ILSVRC2015-VID-Curation/Data/VID/train/a_decenter/ILSVRC2015_train_00000000/000057.00.crop.x.jpg'
p180
aS'/home/mihir/katherina/AssociationNet/data/ILSVRC2015-VID-Curation/Data/VID/train/a_decenter/ILSVRC2015_train_00000000/000058.00.crop.x.jpg'
p181
aS'/home/mihir/katherina/AssociationNet/data/ILSVRC2015-VID-Curation/Data/VID/train/a_decenter/ILSVRC2015_train_00000000/000059.00.crop.x.jpg'
p182
aS'/home/mihir/katherina/AssociationNet/data/ILSVRC2015-VID-Curation/Data/VID/train/a_decenter/ILSVRC2015_train_00000000/000060.00.crop.x.jpg'
p183
aa(lp184
S'/home/mihir/katherina/AssociationNet/data/ILSVRC2015-VID-Curation/Data/VID/train/a_decenter/ILSVRC2015_train_00001000/000000.00.crop.x.jpg'
p185
aS'/home/mihir/katherina/AssociationNet/data/ILSVRC2015-VID-Curation/Data/VID/train/a_decenter/ILSVRC2015_train_00001000/000001.00.crop.x.jpg'
p186
aS'/home/mihir/katherina/AssociationNet/data/ILSVRC2015-VID-Curation/Data/VID/train/a_decenter/ILSVRC2015_train_00001000/000002.00.crop.x.jpg'
p187
aS'/home/mihir/katherina/AssociationNet/data/ILSVRC2015-VID-Curation/Data/VID/train/a_decenter/ILSVRC2015_train_00001000/000003.00.crop.x.jpg'
p188
aS'/home/mihir/katherina/AssociationNet/data/ILSVRC2015-VID-Curation/Data/VID/train/a_decenter/ILSVRC2015_train_00001000/000004.00.crop.x.jpg'
p189
aS'/home/mihir/katherina/AssociationNet/data/ILSVRC2015-VID-Curation/Data/VID/train/a_decenter/ILSVRC2015_train_00001000/000005.00.crop.x.jpg'
p190
aS'/home/mihir/katherina/AssociationNet/data/ILSVRC2015-VID-Curation/Data/VID/train/a_decenter/ILSVRC2015_train_00001000/000006.00.crop.x.jpg'
p191
aS'/home/mihir/katherina/AssociationNet/data/ILSVRC2015-VID-Curation/Data/VID/train/a_decenter/ILSVRC2015_train_00001000/000007.00.crop.x.jpg'
p192
aS'/home/mihir/katherina/AssociationNet/data/ILSVRC2015-VID-Curation/Data/VID/train/a_decenter/ILSVRC2015_train_00001000/000008.00.crop.x.jpg'
p193
aS'/home/mihir/katherina/AssociationNet/data/ILSVRC2015-VID-Curation/Data/VID/train/a_decenter/ILSVRC2015_train_00001000/000009.00.crop.x.jpg'
p194
aS'/home/mihir/katherina/AssociationNet/data/ILSVRC2015-VID-Curation/Data/VID/train/a_decenter/ILSVRC2015_train_00001000/000010.00.crop.x.jpg'
p195
aS'/home/mihir/katherina/AssociationNet/data/ILSVRC2015-VID-Curation/Data/VID/train/a_decenter/ILSVRC2015_train_00001000/000011.00.crop.x.jpg'
p196
aS'/home/mihir/katherina/AssociationNet/data/ILSVRC2015-VID-Curation/Data/VID/train/a_decenter/ILSVRC2015_train_00001000/000012.00.crop.x.jpg'
p197
aS'/home/mihir/katherina/AssociationNet/data/ILSVRC2015-VID-Curation/Data/VID/train/a_decenter/ILSVRC2015_train_00001000/000013.00.crop.x.jpg'
p198
aS'/home/mihir/katherina/AssociationNet/data/ILSVRC2015-VID-Curation/Data/VID/train/a_decenter/ILSVRC2015_train_00001000/000014.00.crop.x.jpg'
p199
aS'/home/mihir/katherina/AssociationNet/data/ILSVRC2015-VID-Curation/Data/VID/train/a_decenter/ILSVRC2015_train_00001000/000015.00.crop.x.jpg'
p200
aS'/home/mihir/katherina/AssociationNet/data/ILSVRC2015-VID-Curation/Data/VID/train/a_decenter/ILSVRC2015_train_00001000/000016.00.crop.x.jpg'
p201
aS'/home/mihir/katherina/AssociationNet/data/ILSVRC2015-VID-Curation/Data/VID/train/a_decenter/ILSVRC2015_train_00001000/000017.00.crop.x.jpg'
p202
aS'/home/mihir/katherina/AssociationNet/data/ILSVRC2015-VID-Curation/Data/VID/train/a_decenter/ILSVRC2015_train_00001000/000018.00.crop.x.jpg'
p203
aS'/home/mihir/katherina/AssociationNet/data/ILSVRC2015-VID-Curation/Data/VID/train/a_decenter/ILSVRC2015_train_00001000/000019.00.crop.x.jpg'
p204
aS'/home/mihir/katherina/AssociationNet/data/ILSVRC2015-VID-Curation/Data/VID/train/a_decenter/ILSVRC2015_train_00001000/000020.00.crop.x.jpg'
p205
aS'/home/mihir/katherina/AssociationNet/data/ILSVRC2015-VID-Curation/Data/VID/train/a_decenter/ILSVRC2015_train_00001000/000021.00.crop.x.jpg'
p206
aS'/home/mihir/katherina/AssociationNet/data/ILSVRC2015-VID-Curation/Data/VID/train/a_decenter/ILSVRC2015_train_00001000/000022.00.crop.x.jpg'
p207
aS'/home/mihir/katherina/AssociationNet/data/ILSVRC2015-VID-Curation/Data/VID/train/a_decenter/ILSVRC2015_train_00001000/000023.00.crop.x.jpg'
p208
aS'/home/mihir/katherina/AssociationNet/data/ILSVRC2015-VID-Curation/Data/VID/train/a_decenter/ILSVRC2015_train_00001000/000024.00.crop.x.jpg'
p209
aS'/home/mihir/katherina/AssociationNet/data/ILSVRC2015-VID-Curation/Data/VID/train/a_decenter/ILSVRC2015_train_00001000/000025.00.crop.x.jpg'
p210
aS'/home/mihir/katherina/AssociationNet/data/ILSVRC2015-VID-Curation/Data/VID/train/a_decenter/ILSVRC2015_train_00001000/000026.00.crop.x.jpg'
p211
aS'/home/mihir/katherina/AssociationNet/data/ILSVRC2015-VID-Curation/Data/VID/train/a_decenter/ILSVRC2015_train_00001000/000027.00.crop.x.jpg'
p212
aS'/home/mihir/katherina/AssociationNet/data/ILSVRC2015-VID-Curation/Data/VID/train/a_decenter/ILSVRC2015_train_00001000/000028.00.crop.x.jpg'
p213
aS'/home/mihir/katherina/AssociationNet/data/ILSVRC2015-VID-Curation/Data/VID/train/a_decenter/ILSVRC2015_train_00001000/000029.00.crop.x.jpg'
p214
aS'/home/mihir/katherina/AssociationNet/data/ILSVRC2015-VID-Curation/Data/VID/train/a_decenter/ILSVRC2015_train_00001000/000030.00.crop.x.jpg'
p215
aS'/home/mihir/katherina/AssociationNet/data/ILSVRC2015-VID-Curation/Data/VID/train/a_decenter/ILSVRC2015_train_00001000/000031.00.crop.x.jpg'
p216
aS'/home/mihir/katherina/AssociationNet/data/ILSVRC2015-VID-Curation/Data/VID/train/a_decenter/ILSVRC2015_train_00001000/000032.00.crop.x.jpg'
p217
aS'/home/mihir/katherina/AssociationNet/data/ILSVRC2015-VID-Curation/Data/VID/train/a_decenter/ILSVRC2015_train_00001000/000033.00.crop.x.jpg'
p218
aS'/home/mihir/katherina/AssociationNet/data/ILSVRC2015-VID-Curation/Data/VID/train/a_decenter/ILSVRC2015_train_00001000/000034.00.crop.x.jpg'
p219
aS'/home/mihir/katherina/AssociationNet/data/ILSVRC2015-VID-Curation/Data/VID/train/a_decenter/ILSVRC2015_train_00001000/000035.00.crop.x.jpg'
p220
aS'/home/mihir/katherina/AssociationNet/data/ILSVRC2015-VID-Curation/Data/VID/train/a_decenter/ILSVRC2015_train_00001000/000036.00.crop.x.jpg'
p221
aS'/home/mihir/katherina/AssociationNet/data/ILSVRC2015-VID-Curation/Data/VID/train/a_decenter/ILSVRC2015_train_00001000/000037.00.crop.x.jpg'
p222
aS'/home/mihir/katherina/AssociationNet/data/ILSVRC2015-VID-Curation/Data/VID/train/a_decenter/ILSVRC2015_train_00001000/000038.00.crop.x.jpg'
p223
aS'/home/mihir/katherina/AssociationNet/data/ILSVRC2015-VID-Curation/Data/VID/train/a_decenter/ILSVRC2015_train_00001000/000039.00.crop.x.jpg'
p224
aS'/home/mihir/katherina/AssociationNet/data/ILSVRC2015-VID-Curation/Data/VID/train/a_decenter/ILSVRC2015_train_00001000/000040.00.crop.x.jpg'
p225
aS'/home/mihir/katherina/AssociationNet/data/ILSVRC2015-VID-Curation/Data/VID/train/a_decenter/ILSVRC2015_train_00001000/000041.00.crop.x.jpg'
p226
aS'/home/mihir/katherina/AssociationNet/data/ILSVRC2015-VID-Curation/Data/VID/train/a_decenter/ILSVRC2015_train_00001000/000042.00.crop.x.jpg'
p227
aS'/home/mihir/katherina/AssociationNet/data/ILSVRC2015-VID-Curation/Data/VID/train/a_decenter/ILSVRC2015_train_00001000/000043.00.crop.x.jpg'
p228
aS'/home/mihir/katherina/AssociationNet/data/ILSVRC2015-VID-Curation/Data/VID/train/a_decenter/ILSVRC2015_train_00001000/000044.00.crop.x.jpg'
p229
aS'/home/mihir/katherina/AssociationNet/data/ILSVRC2015-VID-Curation/Data/VID/train/a_decenter/ILSVRC2015_train_00001000/000045.00.crop.x.jpg'
p230
aS'/home/mihir/katherina/AssociationNet/data/ILSVRC2015-VID-Curation/Data/VID/train/a_decenter/ILSVRC2015_train_00001000/000046.00.crop.x.jpg'
p231
aS'/home/mihir/katherina/AssociationNet/data/ILSVRC2015-VID-Curation/Data/VID/train/a_decenter/ILSVRC2015_train_00001000/000047.00.crop.x.jpg'
p232
aass.